target datalayout = "e-m:e-p270:32:32-p271:32:32-p272:64:64-i64:64-i128:128-f80:128-n8:16:32:64-S128"
target triple = "x86_64-pc-linux-gnu"

%"class.std::__cxx11::basic_string" = type { %"struct.std::__cxx11::basic_string<char>::_Alloc_hider", i64, %union.anon }
%"struct.std::__cxx11::basic_string<char>::_Alloc_hider" = type { ptr }
%union.anon = type { i64, [8 x i8] }

@.str.14 = private unnamed_addr constant [8 x i8] c"Policy \00", align 1
@.str.15 = private unnamed_addr constant [14 x i8] c" is not set: \00", align 1
@.str.16 = private unnamed_addr constant [28 x i8] c"  Run \22cmake --help-policy \00", align 1
@.str.17 = private unnamed_addr constant [97 x i8] c"\22 for policy details.  Use the cmake_policy command to set the policy and suppress this warning.\00", align 1

; Function Attrs: mustprogress uwtable
define dso_local void @_ZN10cmPolicies16GetPolicyWarningB5cxx11ENS_8PolicyIDE(ptr dead_on_unwind noalias writable sret(%"class.std::__cxx11::basic_string") align 8 %0, i32 noundef %1) #5 align 2 {
  %3 = alloca ptr, align 8
  %4 = alloca i32, align 4
  %5 = alloca ptr, align 8
  %6 = alloca ptr, align 8
  %7 = alloca ptr, align 8
  store ptr %0, ptr %3, align 8
  store i32 %1, ptr %4, align 4, !tbaa !34
  call void @llvm.lifetime.start.p0(i64 8, ptr %5) #3
  %8 = load i32, ptr %4, align 4, !tbaa !34
  %9 = call noundef ptr @_ZL10idToStringN10cmPolicies8PolicyIDE(i32 noundef %8)
  store ptr %9, ptr %5, align 8, !tbaa !26
  call void @llvm.lifetime.start.p0(i64 8, ptr %6) #3
  %10 = load i32, ptr %4, align 4, !tbaa !34
  %11 = call noundef ptr @_ZL20idToShortDescriptionN10cmPolicies8PolicyIDE(i32 noundef %10)
  store ptr %11, ptr %6, align 8, !tbaa !26
  call void @llvm.lifetime.start.p0(i64 8, ptr %7) #3
  %12 = load i32, ptr %4, align 4, !tbaa !34
  %13 = call noundef ptr @_ZL10idToStringN10cmPolicies8PolicyIDE(i32 noundef %12)
  store ptr %13, ptr %7, align 8, !tbaa !26
  call void @_Z8cmStrCatIRA8_KcPS0_JRA14_S0_S3_RA28_S0_S3_RA97_S0_EENSt7__cxx1112basic_stringIcSt11char_traitsIcESaIcEEEOT_OT0_DpOT1_(ptr dead_on_unwind writable sret(%"class.std::__cxx11::basic_string") align 8 %0, ptr noundef nonnull align 1 dereferenceable(8) @.str.14, ptr noundef nonnull align 8 dereferenceable(8) %5, ptr noundef nonnull align 1 dereferenceable(14) @.str.15, ptr noundef nonnull align 8 dereferenceable(8) %6, ptr noundef nonnull align 1 dereferenceable(28) @.str.16, ptr noundef nonnull align 8 dereferenceable(8) %7, ptr noundef nonnull align 1 dereferenceable(97) @.str.17)
  call void @llvm.lifetime.end.p0(i64 8, ptr %7) #3
  call void @llvm.lifetime.end.p0(i64 8, ptr %6) #3
  call void @llvm.lifetime.end.p0(i64 8, ptr %5) #3
  ret void
}