; Function Attrs: mustprogress uwtable
define dso_local void @_ZN10cmPolicies16GetPolicyWarningB5cxx11ENS_8PolicyIDE(ptr dead_on_unwind noalias writable sret(%"class.std::__cxx11::basic_string") align 8 %0, i32 noundef %1) local_unnamed_addr #4 align 2 {
  %3 = alloca ptr, align 8
  %4 = alloca ptr, align 8
  %5 = alloca ptr, align 8
  call void @llvm.lifetime.start.p0(i64 8, ptr nonnull %3) #23
  %6 = tail call fastcc noundef ptr @_ZL10idToStringN10cmPolicies8PolicyIDE(i32 noundef %1)
  store ptr %6, ptr %3, align 8, !tbaa !21
  call void @llvm.lifetime.start.p0(i64 8, ptr nonnull %4) #23
  %7 = tail call fastcc noundef ptr @_ZL20idToShortDescriptionN10cmPolicies8PolicyIDE(i32 noundef %1)
  store ptr %7, ptr %4, align 8, !tbaa !21
  call void @llvm.lifetime.start.p0(i64 8, ptr nonnull %5) #23
  store ptr %6, ptr %5, align 8, !tbaa !21
  call void @_Z8cmStrCatIRA8_KcPS0_JRA14_S0_S3_RA28_S0_S3_RA97_S0_EENSt7__cxx1112basic_stringIcSt11char_traitsIcESaIcEEEOT_OT0_DpOT1_(ptr dead_on_unwind writable sret(%"class.std::__cxx11::basic_string") align 8 %0, ptr noundef nonnull align 1 dereferenceable(8) @.str.14, ptr noundef nonnull align 8 dereferenceable(8) %3, ptr noundef nonnull align 1 dereferenceable(14) @.str.15, ptr noundef nonnull align 8 dereferenceable(8) %4, ptr noundef nonnull align 1 dereferenceable(28) @.str.16, ptr noundef nonnull align 8 dereferenceable(8) %5, ptr noundef nonnull align 1 dereferenceable(97) @.str.17)
  call void @llvm.lifetime.end.p0(i64 8, ptr nonnull %5) #23
  call void @llvm.lifetime.end.p0(i64 8, ptr nonnull %4) #23
  call void @llvm.lifetime.end.p0(i64 8, ptr nonnull %3) #23
  ret void
}